target datalayout = "e-m:e-p270:32:32-p271:32:32-p272:64:64-i64:64-i128:128-f80:128-n8:16:32:64-S128"
target triple = "x86_64-pc-linux-gnu"

%struct.object_id = type { [32 x i8], i32 }
%struct.ref_array_item = type { %struct.object_id, ptr, i32, i32, ptr, ptr, ptr, ptr, ptr, [0 x i8] }

@.str.144 = private unnamed_addr constant [27 x i8] c"size_t overflow: %lu + %lu\00", align 1

; Function Attrs: inlinehint nounwind uwtable
define internal void @oidcpy(ptr noundef %0, ptr noundef %1) #1 {
  %3 = alloca ptr, align 8
  %4 = alloca ptr, align 8
  store ptr %0, ptr %3, align 8, !tbaa !68
  store ptr %1, ptr %4, align 8, !tbaa !68
  %5 = load ptr, ptr %3, align 8, !tbaa !68
  %6 = getelementptr inbounds nuw %struct.object_id, ptr %5, i32 0, i32 0
  %7 = getelementptr inbounds [32 x i8], ptr %6, i64 0, i64 0
  %8 = load ptr, ptr %4, align 8, !tbaa !68
  %9 = getelementptr inbounds nuw %struct.object_id, ptr %8, i32 0, i32 0
  %10 = getelementptr inbounds [32 x i8], ptr %9, i64 0, i64 0
  call void @llvm.memcpy.p0.p0.i64(ptr align 4 %7, ptr align 4 %10, i64 32, i1 false)
  %11 = load ptr, ptr %4, align 8, !tbaa !68
  %12 = getelementptr inbounds nuw %struct.object_id, ptr %11, i32 0, i32 1
  %13 = load i32, ptr %12, align 4, !tbaa !222
  %14 = load ptr, ptr %3, align 8, !tbaa !68
  %15 = getelementptr inbounds nuw %struct.object_id, ptr %14, i32 0, i32 1
  store i32 %13, ptr %15, align 4, !tbaa !222
  ret void
}

; Function Attrs: inlinehint nounwind uwtable
define internal i64 @st_add(i64 noundef %0, i64 noundef %1) #1 {
  %3 = alloca i64, align 8
  %4 = alloca i64, align 8
  store i64 %0, ptr %3, align 8, !tbaa !71
  store i64 %1, ptr %4, align 8, !tbaa !71
  %5 = load i64, ptr %4, align 8, !tbaa !71
  %6 = load i64, ptr %3, align 8, !tbaa !71
  %7 = sub i64 -1, %6
  %8 = icmp ugt i64 %5, %7
  br i1 %8, label %9, label %12

9:                                                ; preds = %2
  %10 = load i64, ptr %3, align 8, !tbaa !71
  %11 = load i64, ptr %4, align 8, !tbaa !71
  call void (ptr, ...) @die(ptr noundef @.str.144, i64 noundef %10, i64 noundef %11) #13
  unreachable

12:                                               ; preds = %2
  %13 = load i64, ptr %3, align 8, !tbaa !71
  %14 = load i64, ptr %4, align 8, !tbaa !71
  %15 = add i64 %13, %14
  ret i64 %15
}

; Function Attrs: nounwind uwtable
define internal ptr @new_ref_array_item(ptr noundef %0, ptr noundef %1) #0 {
  %3 = alloca ptr, align 8
  %4 = alloca ptr, align 8
  %5 = alloca ptr, align 8
  %6 = alloca i64, align 8
  store ptr %0, ptr %3, align 8, !tbaa !13
  store ptr %1, ptr %4, align 8, !tbaa !68
  call void @llvm.lifetime.start.p0(i64 8, ptr %5) #11
  br label %7

7:                                                ; preds = %2
  call void @llvm.lifetime.start.p0(i64 8, ptr %6) #11
  %8 = load ptr, ptr %3, align 8, !tbaa !13
  %9 = call i64 @strlen(ptr noundef %8) #12
  store i64 %9, ptr %6, align 8, !tbaa !71
  %10 = load i64, ptr %6, align 8, !tbaa !71
  %11 = call i64 @st_add(i64 noundef 96, i64 noundef %10)
  %12 = call i64 @st_add(i64 noundef %11, i64 noundef 1)
  %13 = call ptr @xcalloc(i64 noundef 1, i64 noundef %12)
  store ptr %13, ptr %5, align 8, !tbaa !69
  %14 = load ptr, ptr %5, align 8, !tbaa !69
  %15 = getelementptr inbounds nuw %struct.ref_array_item, ptr %14, i32 0, i32 9
  %16 = getelementptr inbounds [0 x i8], ptr %15, i64 0, i64 0
  %17 = load ptr, ptr %3, align 8, !tbaa !13
  %18 = load i64, ptr %6, align 8, !tbaa !71
  call void @llvm.memcpy.p0.p0.i64(ptr align 8 %16, ptr align 1 %17, i64 %18, i1 false)
  call void @llvm.lifetime.end.p0(i64 8, ptr %6) #11
  br label %19

19:                                               ; preds = %7
  br label %20

20:                                               ; preds = %19
  %21 = load ptr, ptr %5, align 8, !tbaa !69
  %22 = getelementptr inbounds nuw %struct.ref_array_item, ptr %21, i32 0, i32 0
  %23 = load ptr, ptr %4, align 8, !tbaa !68
  call void @oidcpy(ptr noundef %22, ptr noundef %23)
  %24 = load ptr, ptr %5, align 8, !tbaa !69
  %25 = getelementptr inbounds nuw %struct.ref_array_item, ptr %24, i32 0, i32 1
  store ptr null, ptr %25, align 8, !tbaa !13
  %26 = load ptr, ptr %5, align 8, !tbaa !69
  call void @llvm.lifetime.end.p0(i64 8, ptr %5) #11
  ret ptr %26
}