; Function Attrs: nounwind uwtable
define internal fastcc noundef ptr @new_ref_array_item(ptr noundef readonly captures(none) %0, ptr noundef readonly captures(none) %1) unnamed_addr #0 {
  %3 = tail call i64 @strlen(ptr noundef nonnull dereferenceable(1) %0) #24
  %4 = icmp ugt i64 %3, -97
  br i1 %4, label %5, label %st_add.exit

5:                                                ; preds = %2
  tail call void (ptr, ...) @die(ptr noundef nonnull @.str.144, i64 noundef 96, i64 noundef %3) #25
  unreachable

st_add.exit:                                      ; preds = %2
  %6 = icmp eq i64 %3, -97
  br i1 %6, label %7, label %st_add.exit8

7:                                                ; preds = %st_add.exit
  tail call void (ptr, ...) @die(ptr noundef nonnull @.str.144, i64 noundef -1, i64 noundef 1) #25
  unreachable

st_add.exit8:                                     ; preds = %st_add.exit
  %8 = add nuw i64 %3, 97
  %9 = tail call ptr @xcalloc(i64 noundef 1, i64 noundef %8) #23
  %10 = getelementptr inbounds nuw i8, ptr %9, i64 96
  tail call void @llvm.memcpy.p0.p0.i64(ptr nonnull align 8 %10, ptr nonnull align 1 %0, i64 %3, i1 false)
  tail call void @llvm.memcpy.p0.p0.i64(ptr noundef nonnull align 4 dereferenceable(32) %9, ptr noundef nonnull readonly align 4 dereferenceable(32) %1, i64 32, i1 false)
  %11 = getelementptr inbounds nuw i8, ptr %1, i64 32
  %12 = load i32, ptr %11, align 4, !tbaa !58
  %13 = getelementptr inbounds nuw i8, ptr %9, i64 32
  store i32 %12, ptr %13, align 4, !tbaa !58
  %14 = getelementptr inbounds nuw i8, ptr %9, i64 40
  store ptr null, ptr %14, align 8, !tbaa !59
  ret ptr %9
}